; ModuleID = 'source-C-CXX/41/273.cpp'
source_filename = "source-C-CXX/41/273.cpp"
target datalayout = "e-m:e-p270:32:32-p271:32:32-p272:64:64-i64:64-f80:128-n8:16:32:64-S128"
target triple = "x86_64-pc-linux-gnu"

%"class.std::ios_base::Init" = type { i8 }
%"class.std::basic_istream" = type { i32 (...)**, i64, %"class.std::basic_ios" }
%"class.std::basic_ios" = type { %"class.std::ios_base", %"class.std::basic_ostream"*, i8, i8, %"class.std::basic_streambuf"*, %"class.std::ctype"*, %"class.std::num_put"*, %"class.std::num_get"* }
%"class.std::ios_base" = type { i32 (...)**, i64, i64, i32, i32, i32, %"struct.std::ios_base::_Callback_list"*, %"struct.std::ios_base::_Words", [8 x %"struct.std::ios_base::_Words"], i32, %"struct.std::ios_base::_Words"*, %"class.std::locale" }
%"struct.std::ios_base::_Callback_list" = type { %"struct.std::ios_base::_Callback_list"*, void (i32, %"class.std::ios_base"*, i32)*, i32, i32 }
%"struct.std::ios_base::_Words" = type { i8*, i64 }
%"class.std::locale" = type { %"class.std::locale::_Impl"* }
%"class.std::locale::_Impl" = type { i32, %"class.std::locale::facet"**, i64, %"class.std::locale::facet"**, i8** }
%"class.std::locale::facet" = type <{ i32 (...)**, i32, [4 x i8] }>
%"class.std::basic_ostream" = type { i32 (...)**, %"class.std::basic_ios" }
%"class.std::basic_streambuf" = type { i32 (...)**, i8*, i8*, i8*, i8*, i8*, i8*, %"class.std::locale" }
%"class.std::ctype" = type <{ %"class.std::locale::facet.base", [4 x i8], %struct.__locale_struct*, i8, [7 x i8], i32*, i32*, i16*, i8, [256 x i8], [256 x i8], i8, [6 x i8] }>
%"class.std::locale::facet.base" = type <{ i32 (...)**, i32 }>
%struct.__locale_struct = type { [13 x %struct.__locale_data*], i16*, i32*, i32*, [13 x i8*] }
%struct.__locale_data = type opaque
%"class.std::num_put" = type { %"class.std::locale::facet.base", [4 x i8] }
%"class.std::num_get" = type { %"class.std::locale::facet.base", [4 x i8] }

@_ZStL8__ioinit = internal global %"class.std::ios_base::Init" zeroinitializer, align 1
@__dso_handle = external hidden global i8
@_ZSt3cin = external global %"class.std::basic_istream", align 8
@_ZSt4cout = external global %"class.std::basic_ostream", align 8
@llvm.global_ctors = appending global [1 x { i32, void ()*, i8* }] [{ i32, void ()*, i8* } { i32 65535, void ()* @_GLOBAL__sub_I_273.cpp, i8* null }]

declare void @_ZNSt8ios_base4InitC1Ev(%"class.std::ios_base::Init"* nonnull align 1 dereferenceable(1)) unnamed_addr #0

; Function Attrs: nounwind
declare void @_ZNSt8ios_base4InitD1Ev(%"class.std::ios_base::Init"* nonnull align 1 dereferenceable(1)) unnamed_addr #1

; Function Attrs: nofree nounwind
declare i32 @__cxa_atexit(void (i8*)*, i8*, i8*) local_unnamed_addr #2

; Function Attrs: mustprogress norecurse sspstrong uwtable
define dso_local i32 @main() local_unnamed_addr #3 {
  %1 = alloca i8, align 1
  %2 = alloca i32, align 4
  %3 = alloca i32, align 4
  %4 = alloca [100000 x i32], align 16
  %5 = bitcast i32* %2 to i8*
  call void @llvm.lifetime.start.p0i8(i64 4, i8* nonnull %5) #6
  %6 = bitcast i32* %3 to i8*
  call void @llvm.lifetime.start.p0i8(i64 4, i8* nonnull %6) #6
  %7 = bitcast [100000 x i32]* %4 to i8*
  call void @llvm.lifetime.start.p0i8(i64 400000, i8* nonnull %7) #6
  %8 = call nonnull align 8 dereferenceable(16) %"class.std::basic_istream"* @_ZNSirsERi(%"class.std::basic_istream"* nonnull align 8 dereferenceable(16) @_ZSt3cin, i32* nonnull align 4 dereferenceable(4) %3)
  %9 = load i32, i32* %3, align 4, !tbaa !5
  %10 = icmp sgt i32 %9, 0
  br i1 %10, label %18, label %11

11:                                               ; preds = %18, %0
  %12 = call nonnull align 8 dereferenceable(16) %"class.std::basic_istream"* @_ZNSirsERi(%"class.std::basic_istream"* nonnull align 8 dereferenceable(16) @_ZSt3cin, i32* nonnull align 4 dereferenceable(4) %2)
  %13 = load i32, i32* %3, align 4, !tbaa !5
  %14 = load i32, i32* %2, align 4
  %15 = icmp sgt i32 %13, 0
  br i1 %15, label %16, label %26

16:                                               ; preds = %11
  %17 = sext i32 %13 to i64
  br label %35

18:                                               ; preds = %0, %18
  %19 = phi i64 [ %22, %18 ], [ 0, %0 ]
  %20 = getelementptr inbounds [100000 x i32], [100000 x i32]* %4, i64 0, i64 %19
  %21 = call nonnull align 8 dereferenceable(16) %"class.std::basic_istream"* @_ZNSirsERi(%"class.std::basic_istream"* nonnull align 8 dereferenceable(16) @_ZSt3cin, i32* nonnull align 4 dereferenceable(4) %20)
  %22 = add nuw nsw i64 %19, 1
  %23 = load i32, i32* %3, align 4, !tbaa !5
  %24 = sext i32 %23 to i64
  %25 = icmp slt i64 %22, %24
  br i1 %25, label %18, label %11, !llvm.loop !9

26:                                               ; preds = %118, %11
  %27 = phi i32 [ 0, %11 ], [ %119, %118 ]
  %28 = sub i32 %13, %27
  %29 = getelementptr inbounds [100000 x i32], [100000 x i32]* %4, i64 0, i64 0
  %30 = load i32, i32* %29, align 16, !tbaa !5
  %31 = call nonnull align 8 dereferenceable(8) %"class.std::basic_ostream"* @_ZNSolsEi(%"class.std::basic_ostream"* nonnull align 8 dereferenceable(8) @_ZSt4cout, i32 %30)
  %32 = icmp sgt i32 %28, 1
  br i1 %32, label %33, label %123

33:                                               ; preds = %26
  %34 = zext i32 %28 to i64
  br label %124

35:                                               ; preds = %16, %118
  %36 = phi i32 [ %121, %118 ], [ 0, %16 ]
  %37 = phi i32 [ %119, %118 ], [ 0, %16 ]
  %38 = sext i32 %36 to i64
  %39 = getelementptr inbounds [100000 x i32], [100000 x i32]* %4, i64 0, i64 %38
  %40 = load i32, i32* %39, align 4, !tbaa !5
  %41 = icmp eq i32 %40, %14
  br i1 %41, label %42, label %118

42:                                               ; preds = %35
  %43 = add nsw i32 %37, 1
  %44 = icmp slt i32 %36, %13
  br i1 %44, label %45, label %109

45:                                               ; preds = %42
  %46 = sub nsw i64 %17, %38
  %47 = icmp ult i64 %46, 8
  br i1 %47, label %107, label %48

48:                                               ; preds = %45
  %49 = and i64 %46, -8
  %50 = add nsw i64 %49, %38
  %51 = add nsw i64 %49, -8
  %52 = lshr exact i64 %51, 3
  %53 = add nuw nsw i64 %52, 1
  %54 = and i64 %53, 1
  %55 = icmp eq i64 %51, 0
  br i1 %55, label %89, label %56

56:                                               ; preds = %48
  %57 = and i64 %53, 4611686018427387902
  br label %58

58:                                               ; preds = %58, %56
  %59 = phi i64 [ 0, %56 ], [ %86, %58 ]
  %60 = phi i64 [ %57, %56 ], [ %87, %58 ]
  %61 = add i64 %59, %38
  %62 = add nsw i64 %61, 1
  %63 = getelementptr inbounds [100000 x i32], [100000 x i32]* %4, i64 0, i64 %62
  %64 = bitcast i32* %63 to <4 x i32>*
  %65 = load <4 x i32>, <4 x i32>* %64, align 4, !tbaa !5
  %66 = getelementptr inbounds i32, i32* %63, i64 4
  %67 = bitcast i32* %66 to <4 x i32>*
  %68 = load <4 x i32>, <4 x i32>* %67, align 4, !tbaa !5
  %69 = getelementptr inbounds [100000 x i32], [100000 x i32]* %4, i64 0, i64 %61
  %70 = bitcast i32* %69 to <4 x i32>*
  store <4 x i32> %65, <4 x i32>* %70, align 4, !tbaa !5
  %71 = getelementptr inbounds i32, i32* %69, i64 4
  %72 = bitcast i32* %71 to <4 x i32>*
  store <4 x i32> %68, <4 x i32>* %72, align 4, !tbaa !5
  %73 = or i64 %59, 8
  %74 = add i64 %73, %38
  %75 = add nsw i64 %74, 1
  %76 = getelementptr inbounds [100000 x i32], [100000 x i32]* %4, i64 0, i64 %75
  %77 = bitcast i32* %76 to <4 x i32>*
  %78 = load <4 x i32>, <4 x i32>* %77, align 4, !tbaa !5
  %79 = getelementptr inbounds i32, i32* %76, i64 4
  %80 = bitcast i32* %79 to <4 x i32>*
  %81 = load <4 x i32>, <4 x i32>* %80, align 4, !tbaa !5
  %82 = getelementptr inbounds [100000 x i32], [100000 x i32]* %4, i64 0, i64 %74
  %83 = bitcast i32* %82 to <4 x i32>*
  store <4 x i32> %78, <4 x i32>* %83, align 4, !tbaa !5
  %84 = getelementptr inbounds i32, i32* %82, i64 4
  %85 = bitcast i32* %84 to <4 x i32>*
  store <4 x i32> %81, <4 x i32>* %85, align 4, !tbaa !5
  %86 = add nuw i64 %59, 16
  %87 = add i64 %60, -2
  %88 = icmp eq i64 %87, 0
  br i1 %88, label %89, label %58, !llvm.loop !11

89:                                               ; preds = %58, %48
  %90 = phi i64 [ 0, %48 ], [ %86, %58 ]
  %91 = icmp eq i64 %54, 0
  br i1 %91, label %105, label %92

92:                                               ; preds = %89
  %93 = add i64 %90, %38
  %94 = add nsw i64 %93, 1
  %95 = getelementptr inbounds [100000 x i32], [100000 x i32]* %4, i64 0, i64 %94
  %96 = bitcast i32* %95 to <4 x i32>*
  %97 = load <4 x i32>, <4 x i32>* %96, align 4, !tbaa !5
  %98 = getelementptr inbounds i32, i32* %95, i64 4
  %99 = bitcast i32* %98 to <4 x i32>*
  %100 = load <4 x i32>, <4 x i32>* %99, align 4, !tbaa !5
  %101 = getelementptr inbounds [100000 x i32], [100000 x i32]* %4, i64 0, i64 %93
  %102 = bitcast i32* %101 to <4 x i32>*
  store <4 x i32> %97, <4 x i32>* %102, align 4, !tbaa !5
  %103 = getelementptr inbounds i32, i32* %101, i64 4
  %104 = bitcast i32* %103 to <4 x i32>*
  store <4 x i32> %100, <4 x i32>* %104, align 4, !tbaa !5
  br label %105

105:                                              ; preds = %89, %92
  %106 = icmp eq i64 %46, %49
  br i1 %106, label %109, label %107

107:                                              ; preds = %45, %105
  %108 = phi i64 [ %38, %45 ], [ %50, %105 ]
  br label %111

109:                                              ; preds = %111, %105, %42
  %110 = add nsw i32 %36, -1
  br label %118

111:                                              ; preds = %107, %111
  %112 = phi i64 [ %113, %111 ], [ %108, %107 ]
  %113 = add nsw i64 %112, 1
  %114 = getelementptr inbounds [100000 x i32], [100000 x i32]* %4, i64 0, i64 %113
  %115 = load i32, i32* %114, align 4, !tbaa !5
  %116 = getelementptr inbounds [100000 x i32], [100000 x i32]* %4, i64 0, i64 %112
  store i32 %115, i32* %116, align 4, !tbaa !5
  %117 = icmp eq i64 %113, %17
  br i1 %117, label %109, label %111, !llvm.loop !13

118:                                              ; preds = %35, %109
  %119 = phi i32 [ %43, %109 ], [ %37, %35 ]
  %120 = phi i32 [ %110, %109 ], [ %36, %35 ]
  %121 = add nsw i32 %120, 1
  %122 = icmp slt i32 %121, %13
  br i1 %122, label %35, label %26, !llvm.loop !15

123:                                              ; preds = %124, %26
  call void @llvm.lifetime.end.p0i8(i64 400000, i8* nonnull %7) #6
  call void @llvm.lifetime.end.p0i8(i64 4, i8* nonnull %6) #6
  call void @llvm.lifetime.end.p0i8(i64 4, i8* nonnull %5) #6
  ret i32 0

124:                                              ; preds = %33, %124
  %125 = phi i64 [ 1, %33 ], [ %130, %124 ]
  call void @llvm.lifetime.start.p0i8(i64 1, i8* nonnull %1)
  store i8 32, i8* %1, align 1, !tbaa !16
  %126 = call nonnull align 8 dereferenceable(8) %"class.std::basic_ostream"* @_ZSt16__ostream_insertIcSt11char_traitsIcEERSt13basic_ostreamIT_T0_ES6_PKS3_l(%"class.std::basic_ostream"* nonnull align 8 dereferenceable(8) @_ZSt4cout, i8* nonnull %1, i64 1)
  call void @llvm.lifetime.end.p0i8(i64 1, i8* nonnull %1)
  %127 = getelementptr inbounds [100000 x i32], [100000 x i32]* %4, i64 0, i64 %125
  %128 = load i32, i32* %127, align 4, !tbaa !5
  %129 = call nonnull align 8 dereferenceable(8) %"class.std::basic_ostream"* @_ZNSolsEi(%"class.std::basic_ostream"* nonnull align 8 dereferenceable(8) %126, i32 %128)
  %130 = add nuw nsw i64 %125, 1
  %131 = icmp eq i64 %130, %34
  br i1 %131, label %123, label %124, !llvm.loop !17
}

; Function Attrs: argmemonly mustprogress nofree nosync nounwind willreturn
declare void @llvm.lifetime.start.p0i8(i64 immarg, i8* nocapture) #4

declare nonnull align 8 dereferenceable(16) %"class.std::basic_istream"* @_ZNSirsERi(%"class.std::basic_istream"* nonnull align 8 dereferenceable(16), i32* nonnull align 4 dereferenceable(4)) local_unnamed_addr #0

; Function Attrs: argmemonly mustprogress nofree nosync nounwind willreturn
declare void @llvm.lifetime.end.p0i8(i64 immarg, i8* nocapture) #4

declare nonnull align 8 dereferenceable(8) %"class.std::basic_ostream"* @_ZNSolsEi(%"class.std::basic_ostream"* nonnull align 8 dereferenceable(8), i32) local_unnamed_addr #0

declare nonnull align 8 dereferenceable(8) %"class.std::basic_ostream"* @_ZSt16__ostream_insertIcSt11char_traitsIcEERSt13basic_ostreamIT_T0_ES6_PKS3_l(%"class.std::basic_ostream"* nonnull align 8 dereferenceable(8), i8*, i64) local_unnamed_addr #0

; Function Attrs: sspstrong uwtable
define internal void @_GLOBAL__sub_I_273.cpp() #5 section ".text.startup" {
  tail call void @_ZNSt8ios_base4InitC1Ev(%"class.std::ios_base::Init"* nonnull align 1 dereferenceable(1) @_ZStL8__ioinit)
  %1 = tail call i32 @__cxa_atexit(void (i8*)* bitcast (void (%"class.std::ios_base::Init"*)* @_ZNSt8ios_base4InitD1Ev to void (i8*)*), i8* getelementptr inbounds (%"class.std::ios_base::Init", %"class.std::ios_base::Init"* @_ZStL8__ioinit, i64 0, i32 0), i8* nonnull @__dso_handle) #6
  ret void
}


!llvm.module.flags = !{!0, !1, !2, !3}
!llvm.ident = !{!4}

!0 = !{i32 1, !"wchar_size", i32 4}
!1 = !{i32 7, !"PIC Level", i32 2}
!2 = !{i32 7, !"PIE Level", i32 2}
!3 = !{i32 7, !"uwtable", i32 1}
!4 = !{!"clang version 13.0.0"}
!5 = !{!6, !6, i64 0}
!6 = !{!"int", !7, i64 0}
!7 = !{!"omnipotent char", !8, i64 0}
!8 = !{!"Simple C++ TBAA"}
!9 = distinct !{!9, !10}
!10 = !{!"llvm.loop.mustprogress"}
!11 = distinct !{!11, !10, !12}
!12 = !{!"llvm.loop.isvectorized", i32 1}
!13 = distinct !{!13, !10, !14, !12}
!14 = !{!"llvm.loop.unroll.runtime.disable"}
!15 = distinct !{!15, !10}
!16 = !{!7, !7, i64 0}
!17 = distinct !{!17, !10}
